target datalayout = "e-m:e-p270:32:32-p271:32:32-p272:64:64-i64:64-i128:128-f80:128-n8:16:32:64-S128"
target triple = "x86_64-pc-linux-gnu"

%struct.AVCodecContext = type { ptr, i32, i32, ptr, i32, i32, ptr, ptr, ptr, i64, i32, i32, ptr, i32, %struct.AVRational, %struct.AVRational, %struct.AVRational, i32, i32, i32, i32, i32, %struct.AVRational, i32, i32, i32, i32, i32, i32, i32, i32, i32, i32, i32, ptr, ptr, i32, float, float, float, float, float, float, float, float, float, i32, i32, i32, i32, i32, i32, i32, i32, i32, i32, i32, i32, ptr, ptr, ptr, i32, i32, i32, i32, i32, i32, i32, i32, i32, i32, %struct.AVChannelLayout, i32, i32, i32, i32, i32, i32, i32, i32, ptr, i32, i32, i32, float, float, i32, i32, i32, i32, i32, ptr, i64, i64, float, float, i32, i32, ptr, ptr, i32, i32, i32, i32, i32, ptr, ptr, ptr, ptr, i32, i32, [8 x i64], i32, i32, i32, i32, i32, i32, i32, ptr, ptr, i32, i32, i32, i32, i32, i32, i32, i32, i32, i32, ptr, ptr, i32, i32, ptr, ptr, ptr, ptr, i32, i32, i64, i32, i32, i64, ptr, i64, ptr, i32, ptr, i32 }
%struct.AVRational = type { i32, i32 }
%struct.AVChannelLayout = type { i32, i32, %union.anon.0, ptr }
%union.anon.0 = type { i64 }
%struct.ThreadData = type { ptr, ptr, i32 }
%struct.AVPacket = type { ptr, i64, i64, ptr, i32, i32, i32, ptr, i32, i64, i64, ptr, ptr, %struct.AVRational }

@.str.5 = private unnamed_addr constant [26 x i8] c"Insufficient input data.\0A\00", align 1

; Function Attrs: alwaysinline nounwind willreturn memory(none) uwtable
define internal i32 @av_clip_c(i32 noundef %0, i32 noundef %1, i32 noundef %2) #4 {
  %4 = alloca i32, align 4
  %5 = alloca i32, align 4
  %6 = alloca i32, align 4
  %7 = alloca i32, align 4
  store i32 %0, ptr %5, align 4, !tbaa !42
  store i32 %1, ptr %6, align 4, !tbaa !42
  store i32 %2, ptr %7, align 4, !tbaa !42
  %8 = load i32, ptr %5, align 4, !tbaa !42
  %9 = load i32, ptr %6, align 4, !tbaa !42
  %10 = icmp slt i32 %8, %9
  br i1 %10, label %11, label %13

11:                                               ; preds = %3
  %12 = load i32, ptr %6, align 4, !tbaa !42
  store i32 %12, ptr %4, align 4
  br label %21

13:                                               ; preds = %3
  %14 = load i32, ptr %5, align 4, !tbaa !42
  %15 = load i32, ptr %7, align 4, !tbaa !42
  %16 = icmp sgt i32 %14, %15
  br i1 %16, label %17, label %19

17:                                               ; preds = %13
  %18 = load i32, ptr %7, align 4, !tbaa !42
  store i32 %18, ptr %4, align 4
  br label %21

19:                                               ; preds = %13
  %20 = load i32, ptr %5, align 4, !tbaa !42
  store i32 %20, ptr %4, align 4
  br label %21

21:                                               ; preds = %19, %17, %11
  %22 = load i32, ptr %4, align 4
  ret i32 %22
}

; Function Attrs: nounwind uwtable
define internal i32 @v410_decode_frame(ptr noundef %0, ptr noundef %1, ptr noundef %2, ptr noundef %3) #1 {
  %5 = alloca i32, align 4
  %6 = alloca ptr, align 8
  %7 = alloca ptr, align 8
  %8 = alloca ptr, align 8
  %9 = alloca ptr, align 8
  %10 = alloca %struct.ThreadData, align 8
  %11 = alloca ptr, align 8
  %12 = alloca i32, align 4
  %13 = alloca i32, align 4
  %14 = alloca i32, align 4
  store ptr %0, ptr %6, align 8, !tbaa !4
  store ptr %1, ptr %7, align 8, !tbaa !32
  store ptr %2, ptr %8, align 8, !tbaa !34
  store ptr %3, ptr %9, align 8, !tbaa !35
  call void @llvm.lifetime.start.p0(i64 24, ptr %10) #5
  call void @llvm.lifetime.start.p0(i64 8, ptr %11) #5
  %15 = load ptr, ptr %9, align 8, !tbaa !35
  %16 = getelementptr inbounds nuw %struct.AVPacket, ptr %15, i32 0, i32 3
  %17 = load ptr, ptr %16, align 8, !tbaa !37
  store ptr %17, ptr %11, align 8, !tbaa !39
  call void @llvm.lifetime.start.p0(i64 4, ptr %12) #5
  call void @llvm.lifetime.start.p0(i64 4, ptr %13) #5
  %18 = load ptr, ptr %6, align 8, !tbaa !4
  %19 = getelementptr inbounds nuw %struct.AVCodecContext, ptr %18, i32 0, i32 116
  %20 = load i32, ptr %19, align 8, !tbaa !40
  %21 = load ptr, ptr %6, align 8, !tbaa !4
  %22 = getelementptr inbounds nuw %struct.AVCodecContext, ptr %21, i32 0, i32 19
  %23 = load i32, ptr %22, align 4, !tbaa !41
  %24 = sdiv i32 %23, 4
  %25 = call i32 @av_clip_c(i32 noundef %20, i32 noundef 1, i32 noundef %24) #6
  store i32 %25, ptr %13, align 4, !tbaa !42
  %26 = load ptr, ptr %6, align 8, !tbaa !4
  %27 = getelementptr inbounds nuw %struct.AVCodecContext, ptr %26, i32 0, i32 18
  %28 = load i32, ptr %27, align 8, !tbaa !30
  %29 = mul nsw i32 %28, 4
  %30 = getelementptr inbounds nuw %struct.ThreadData, ptr %10, i32 0, i32 2
  store i32 %29, ptr %30, align 8, !tbaa !43
  %31 = load ptr, ptr %9, align 8, !tbaa !35
  %32 = getelementptr inbounds nuw %struct.AVPacket, ptr %31, i32 0, i32 4
  %33 = load i32, ptr %32, align 8, !tbaa !45
  %34 = load ptr, ptr %6, align 8, !tbaa !4
  %35 = getelementptr inbounds nuw %struct.AVCodecContext, ptr %34, i32 0, i32 19
  %36 = load i32, ptr %35, align 4, !tbaa !41
  %37 = mul nsw i32 4, %36
  %38 = load ptr, ptr %6, align 8, !tbaa !4
  %39 = getelementptr inbounds nuw %struct.AVCodecContext, ptr %38, i32 0, i32 18
  %40 = load i32, ptr %39, align 8, !tbaa !30
  %41 = mul nsw i32 %37, %40
  %42 = icmp slt i32 %33, %41
  br i1 %42, label %43, label %45

43:                                               ; preds = %4
  %44 = load ptr, ptr %6, align 8, !tbaa !4
  call void (ptr, i32, ptr, ...) @av_log(ptr noundef %44, i32 noundef 16, ptr noundef @.str.5)
  store i32 -22, ptr %5, align 4
  store i32 1, ptr %14, align 4
  br label %67

45:                                               ; preds = %4
  %46 = load ptr, ptr %6, align 8, !tbaa !4
  %47 = load ptr, ptr %7, align 8, !tbaa !32
  %48 = call i32 @ff_thread_get_buffer(ptr noundef %46, ptr noundef %47, i32 noundef 0)
  store i32 %48, ptr %12, align 4, !tbaa !42
  %49 = icmp slt i32 %48, 0
  br i1 %49, label %50, label %52

50:                                               ; preds = %45
  %51 = load i32, ptr %12, align 4, !tbaa !42
  store i32 %51, ptr %5, align 4
  store i32 1, ptr %14, align 4
  br label %67

52:                                               ; preds = %45
  %53 = load ptr, ptr %11, align 8, !tbaa !39
  %54 = getelementptr inbounds nuw %struct.ThreadData, ptr %10, i32 0, i32 1
  store ptr %53, ptr %54, align 8, !tbaa !46
  %55 = load ptr, ptr %7, align 8, !tbaa !32
  %56 = getelementptr inbounds nuw %struct.ThreadData, ptr %10, i32 0, i32 0
  store ptr %55, ptr %56, align 8, !tbaa !47
  %57 = load ptr, ptr %6, align 8, !tbaa !4
  %58 = getelementptr inbounds nuw %struct.AVCodecContext, ptr %57, i32 0, i32 120
  %59 = load ptr, ptr %58, align 8, !tbaa !48
  %60 = load ptr, ptr %6, align 8, !tbaa !4
  %61 = load i32, ptr %13, align 4, !tbaa !42
  %62 = call i32 %59(ptr noundef %60, ptr noundef @v410_decode_slice, ptr noundef %10, ptr noundef null, i32 noundef %61)
  %63 = load ptr, ptr %8, align 8, !tbaa !34
  store i32 1, ptr %63, align 4, !tbaa !42
  %64 = load ptr, ptr %9, align 8, !tbaa !35
  %65 = getelementptr inbounds nuw %struct.AVPacket, ptr %64, i32 0, i32 4
  %66 = load i32, ptr %65, align 8, !tbaa !45
  store i32 %66, ptr %5, align 4
  store i32 1, ptr %14, align 4
  br label %67

67:                                               ; preds = %52, %50, %43
  call void @llvm.lifetime.end.p0(i64 4, ptr %13) #5
  call void @llvm.lifetime.end.p0(i64 4, ptr %12) #5
  call void @llvm.lifetime.end.p0(i64 8, ptr %11) #5
  call void @llvm.lifetime.end.p0(i64 24, ptr %10) #5
  %68 = load i32, ptr %5, align 4
  ret i32 %68
}