; Function Attrs: nounwind uwtable
define internal i32 @v410_decode_frame(ptr noundef %0, ptr noundef %1, ptr noundef writeonly captures(none) %2, ptr noundef readonly captures(none) %3) #1 {
  %5 = alloca %struct.ThreadData, align 8
  call void @llvm.lifetime.start.p0(i64 24, ptr nonnull %5) #6
  %6 = getelementptr inbounds nuw i8, ptr %3, i64 24
  %7 = load ptr, ptr %6, align 8, !tbaa !30
  %8 = getelementptr inbounds nuw i8, ptr %0, i64 656
  %9 = load i32, ptr %8, align 8, !tbaa !32
  %10 = getelementptr inbounds nuw i8, ptr %0, i64 116
  %11 = load i32, ptr %10, align 4, !tbaa !33
  %12 = sdiv i32 %11, 4
  %13 = icmp slt i32 %9, 1
  %..i = tail call i32 @llvm.smin.i32(i32 %9, i32 %12)
  %.0.i = select i1 %13, i32 1, i32 %..i
  %14 = getelementptr inbounds nuw i8, ptr %0, i64 112
  %15 = load i32, ptr %14, align 8, !tbaa !28
  %16 = shl nsw i32 %15, 2
  %17 = getelementptr inbounds nuw i8, ptr %5, i64 16
  store i32 %16, ptr %17, align 8, !tbaa !34
  %18 = getelementptr inbounds nuw i8, ptr %3, i64 32
  %19 = load i32, ptr %18, align 8, !tbaa !37
  %20 = shl nsw i32 %11, 2
  %21 = mul nsw i32 %20, %15
  %22 = icmp slt i32 %19, %21
  br i1 %22, label %23, label %24

23:                                               ; preds = %4
  tail call void (ptr, i32, ptr, ...) @av_log(ptr noundef nonnull %0, i32 noundef 16, ptr noundef nonnull @.str.5) #6
  br label %33

24:                                               ; preds = %4
  %25 = tail call i32 @ff_thread_get_buffer(ptr noundef nonnull %0, ptr noundef %1, i32 noundef 0) #6
  %26 = icmp slt i32 %25, 0
  br i1 %26, label %33, label %27

27:                                               ; preds = %24
  %28 = getelementptr inbounds nuw i8, ptr %5, i64 8
  store ptr %7, ptr %28, align 8, !tbaa !38
  store ptr %1, ptr %5, align 8, !tbaa !39
  %29 = getelementptr inbounds nuw i8, ptr %0, i64 680
  %30 = load ptr, ptr %29, align 8, !tbaa !40
  %31 = call i32 %30(ptr noundef nonnull %0, ptr noundef nonnull @v410_decode_slice, ptr noundef nonnull %5, ptr noundef null, i32 noundef %.0.i) #6
  store i32 1, ptr %2, align 4, !tbaa !41
  %32 = load i32, ptr %18, align 8, !tbaa !37
  br label %33

33:                                               ; preds = %24, %27, %23
  %.0 = phi i32 [ -22, %23 ], [ %32, %27 ], [ %25, %24 ]
  call void @llvm.lifetime.end.p0(i64 24, ptr nonnull %5) #6
  ret i32 %.0
}